	.text
	.syntax unified
	.eabi_attribute	67, "2.09"	@ Tag_conformance
	.cpu	cortex-a8
	.eabi_attribute	6, 10	@ Tag_CPU_arch
	.eabi_attribute	7, 65	@ Tag_CPU_arch_profile
	.eabi_attribute	8, 1	@ Tag_ARM_ISA_use
	.eabi_attribute	9, 2	@ Tag_THUMB_ISA_use
	.fpu	neon
	.eabi_attribute	17, 1	@ Tag_ABI_PCS_GOT_use
	.eabi_attribute	20, 2	@ Tag_ABI_FP_denormal
	.eabi_attribute	23, 1	@ Tag_ABI_FP_number_model
	.eabi_attribute	34, 1	@ Tag_CPU_unaligned_access
	.eabi_attribute	24, 1	@ Tag_ABI_align_needed
	.eabi_attribute	25, 1	@ Tag_ABI_align_preserved
	.eabi_attribute	28, 1	@ Tag_ABI_VFP_args
	.eabi_attribute	38, 1	@ Tag_ABI_FP_16bit_format
	.eabi_attribute	18, 4	@ Tag_ABI_PCS_wchar_t
	.eabi_attribute	26, 2	@ Tag_ABI_enum_size
	.eabi_attribute	14, 0	@ Tag_ABI_PCS_R9_use
	.eabi_attribute	68, 1	@ Tag_Virtualization_use
	.file	"/root/Bela/projects/DynamicStiffStringModular/build/ADSR.bc"
	.file	1 "/root/Bela/projects/DynamicStiffStringModular" "ADSR.h"
	.file	2 "/root/Bela/projects/DynamicStiffStringModular" "ExponentialSegment.h"
	.globl	_ZN4ADSRC2Ev
	.p2align	4
	.type	_ZN4ADSRC2Ev,%function
_ZN4ADSRC2Ev:                           @ @_ZN4ADSRC2Ev
.Lfunc_begin0:
	.file	3 "/root/Bela/projects/DynamicStiffStringModular" "ADSR.cpp"
	.loc	3 21 0                  @ /root/Bela/projects/DynamicStiffStringModular/ADSR.cpp:21:0
	.fnstart
	.cfi_startproc
@ BB#0:
	.save	{r4, r10, r11, lr}
	push	{r4, r10, r11, lr}
.Ltmp0:
	.cfi_def_cfa_offset 16
.Ltmp1:
	.cfi_offset lr, -4
.Ltmp2:
	.cfi_offset r11, -8
.Ltmp3:
	.cfi_offset r10, -12
.Ltmp4:
	.cfi_offset r4, -16
	.setfp	r11, sp, #8
	add	r11, sp, #8
.Ltmp5:
	.cfi_def_cfa r11, 8
	@DEBUG_VALUE: ADSR:this <- %R0
	mov	r4, r0
.Ltmp6:
	@DEBUG_VALUE: ADSR:this <- %R4
	.loc	3 20 7 prologue_end     @ /root/Bela/projects/DynamicStiffStringModular/ADSR.cpp:20:7
	add	r0, r4, #24
	bl	_ZN18ExponentialSegmentC1Ev
	adr	r0, .LCPI0_0
	mov	r1, #0
.Ltmp7:
	.loc	3 22 14                 @ /root/Bela/projects/DynamicStiffStringModular/ADSR.cpp:22:14
	vld1.64	{d16, d17}, [r0:128]
	mov	r0, r4
	vst1.32	{d16, d17}, [r0]!
	.loc	3 27 9                  @ /root/Bela/projects/DynamicStiffStringModular/ADSR.cpp:27:9
	str	r1, [r0]
.Ltmp8:
	.loc	3 28 1                  @ /root/Bela/projects/DynamicStiffStringModular/ADSR.cpp:28:1
	mov	r0, r4
	pop	{r4, r10, r11, pc}
.Ltmp9:
	.p2align	4
@ BB#1:
.LCPI0_0:
	.long	981668463               @ float 0.00100000005
	.long	981668463               @ float 0.00100000005
	.long	1065353216              @ float 1
	.long	981668463               @ float 0.00100000005
.Lfunc_end0:
	.size	_ZN4ADSRC2Ev, .Lfunc_end0-_ZN4ADSRC2Ev
	.cfi_endproc
	.fnend

	.globl	_ZN4ADSR13setSampleRateEf
	.p2align	2
	.type	_ZN4ADSR13setSampleRateEf,%function
_ZN4ADSR13setSampleRateEf:              @ @_ZN4ADSR13setSampleRateEf
.Lfunc_begin1:
	.loc	3 32 0                  @ /root/Bela/projects/DynamicStiffStringModular/ADSR.cpp:32:0
	.fnstart
	.cfi_startproc
@ BB#0:
	@DEBUG_VALUE: setSampleRate:this <- %R0
	@DEBUG_VALUE: setSampleRate:rate <- %S0
	.loc	3 33 2 prologue_end     @ /root/Bela/projects/DynamicStiffStringModular/ADSR.cpp:33:2
	add	r0, r0, #24
.Ltmp10:
	.loc	3 33 8 is_stmt 0        @ /root/Bela/projects/DynamicStiffStringModular/ADSR.cpp:33:8
	b	_ZN18ExponentialSegment13setSampleRateEf
.Ltmp11:
.Lfunc_end1:
	.size	_ZN4ADSR13setSampleRateEf, .Lfunc_end1-_ZN4ADSR13setSampleRateEf
	.cfi_endproc
	.fnend

	.globl	_ZN4ADSR7triggerEv
	.p2align	2
	.type	_ZN4ADSR7triggerEv,%function
_ZN4ADSR7triggerEv:                     @ @_ZN4ADSR7triggerEv
.Lfunc_begin2:
	.loc	3 38 0 is_stmt 1        @ /root/Bela/projects/DynamicStiffStringModular/ADSR.cpp:38:0
	.fnstart
	.cfi_startproc
@ BB#0:
	@DEBUG_VALUE: trigger:this <- %R0
	.loc	3 40 9 prologue_end     @ /root/Bela/projects/DynamicStiffStringModular/ADSR.cpp:40:9
	mov	r1, #1
	.loc	3 41 8                  @ /root/Bela/projects/DynamicStiffStringModular/ADSR.cpp:41:8
	vmov.f32	d0, #1.000000e+00
	.loc	3 40 9                  @ /root/Bela/projects/DynamicStiffStringModular/ADSR.cpp:40:9
	str	r1, [r0, #16]
	.loc	3 41 20                 @ /root/Bela/projects/DynamicStiffStringModular/ADSR.cpp:41:20
	vldr	s4, [r0]
	.loc	3 41 2 is_stmt 0        @ /root/Bela/projects/DynamicStiffStringModular/ADSR.cpp:41:2
	add	r0, r0, #24
.Ltmp12:
	.loc	3 41 8                  @ /root/Bela/projects/DynamicStiffStringModular/ADSR.cpp:41:8
	vldr	s2, .LCPI2_0
	vmov.f32	s1, s4
	b	_ZN18ExponentialSegment6rampToEfff
.Ltmp13:
	.p2align	2
@ BB#1:
.LCPI2_0:
	.long	1065437102              @ float 1.00999999
.Lfunc_end2:
	.size	_ZN4ADSR7triggerEv, .Lfunc_end2-_ZN4ADSR7triggerEv
	.cfi_endproc
	.fnend

	.globl	_ZN4ADSR7releaseEv
	.p2align	2
	.type	_ZN4ADSR7releaseEv,%function
_ZN4ADSR7releaseEv:                     @ @_ZN4ADSR7releaseEv
.Lfunc_begin3:
	.loc	3 46 0 is_stmt 1        @ /root/Bela/projects/DynamicStiffStringModular/ADSR.cpp:46:0
	.fnstart
	.cfi_startproc
@ BB#0:
	@DEBUG_VALUE: release:this <- %R0
	.loc	3 48 9 prologue_end     @ /root/Bela/projects/DynamicStiffStringModular/ADSR.cpp:48:9
	mov	r1, #4
	.loc	3 49 8                  @ /root/Bela/projects/DynamicStiffStringModular/ADSR.cpp:49:8
	vmov.i32	d0, #0x0
	.loc	3 48 9                  @ /root/Bela/projects/DynamicStiffStringModular/ADSR.cpp:48:9
	str	r1, [r0, #16]
	.loc	3 49 20                 @ /root/Bela/projects/DynamicStiffStringModular/ADSR.cpp:49:20
	vldr	s4, [r0, #12]
	.loc	3 49 2 is_stmt 0        @ /root/Bela/projects/DynamicStiffStringModular/ADSR.cpp:49:2
	add	r0, r0, #24
.Ltmp14:
	.loc	3 49 8                  @ /root/Bela/projects/DynamicStiffStringModular/ADSR.cpp:49:8
	vldr	s2, .LCPI3_0
	vmov.f32	s1, s4
	b	_ZN18ExponentialSegment6rampToEfff
.Ltmp15:
	.p2align	2
@ BB#1:
.LCPI3_0:
	.long	1065361605              @ float 1.00100005
.Lfunc_end3:
	.size	_ZN4ADSR7releaseEv, .Lfunc_end3-_ZN4ADSR7releaseEv
	.cfi_endproc
	.fnend

	.globl	_ZN4ADSR7processEv
	.p2align	2
	.type	_ZN4ADSR7processEv,%function
_ZN4ADSR7processEv:                     @ @_ZN4ADSR7processEv
.Lfunc_begin4:
	.loc	3 55 0 is_stmt 1        @ /root/Bela/projects/DynamicStiffStringModular/ADSR.cpp:55:0
	.fnstart
	.cfi_startproc
@ BB#0:
	.save	{r4, r5, r11, lr}
	push	{r4, r5, r11, lr}
.Ltmp16:
	.cfi_def_cfa_offset 16
.Ltmp17:
	.cfi_offset lr, -4
.Ltmp18:
	.cfi_offset r11, -8
.Ltmp19:
	.cfi_offset r5, -12
.Ltmp20:
	.cfi_offset r4, -16
	.setfp	r11, sp, #8
	add	r11, sp, #8
.Ltmp21:
	.cfi_def_cfa r11, 8
	@DEBUG_VALUE: process:this <- %R0
	mov	r5, r0
.Ltmp22:
	@DEBUG_VALUE: process:this <- %R5
	.loc	3 61 8 prologue_end     @ /root/Bela/projects/DynamicStiffStringModular/ADSR.cpp:61:8
	ldr	r0, [r5, #16]
.Ltmp23:
	.loc	3 61 8 is_stmt 0        @ /root/Bela/projects/DynamicStiffStringModular/ADSR.cpp:61:8
	cmp	r0, #1
	beq	.LBB4_5
.Ltmp24:
@ BB#1:
	@DEBUG_VALUE: process:this <- %R5
	cmp	r0, #2
	beq	.LBB4_7
.Ltmp25:
@ BB#2:
	@DEBUG_VALUE: process:this <- %R5
	cmp	r0, #4
	bne	.LBB4_10
.Ltmp26:
@ BB#3:
	@DEBUG_VALUE: process:this <- %R5
	.loc	3 83 6 is_stmt 1        @ /root/Bela/projects/DynamicStiffStringModular/ADSR.cpp:83:6
	add	r4, r5, #24
	.loc	3 83 12 is_stmt 0       @ /root/Bela/projects/DynamicStiffStringModular/ADSR.cpp:83:12
	mov	r0, r4
	bl	_ZN18ExponentialSegment8finishedEv
.Ltmp27:
	.loc	3 83 6                  @ /root/Bela/projects/DynamicStiffStringModular/ADSR.cpp:83:6
	cmp	r0, #1
	bne	.LBB4_11
.Ltmp28:
@ BB#4:
	@DEBUG_VALUE: process:this <- %R5
	.loc	3 84 11 is_stmt 1       @ /root/Bela/projects/DynamicStiffStringModular/ADSR.cpp:84:11
	mov	r0, #0
	b	.LBB4_9
.Ltmp29:
.LBB4_5:
	@DEBUG_VALUE: process:this <- %R5
	.loc	3 66 6                  @ /root/Bela/projects/DynamicStiffStringModular/ADSR.cpp:66:6
	add	r4, r5, #24
	.loc	3 66 12 is_stmt 0       @ /root/Bela/projects/DynamicStiffStringModular/ADSR.cpp:66:12
	mov	r0, r4
	bl	_ZN18ExponentialSegment8finishedEv
.Ltmp30:
	.loc	3 66 6                  @ /root/Bela/projects/DynamicStiffStringModular/ADSR.cpp:66:6
	cmp	r0, #1
	bne	.LBB4_11
.Ltmp31:
@ BB#6:
	@DEBUG_VALUE: process:this <- %R5
	.loc	3 67 11 is_stmt 1       @ /root/Bela/projects/DynamicStiffStringModular/ADSR.cpp:67:11
	mov	r0, #2
	.loc	3 68 10                 @ /root/Bela/projects/DynamicStiffStringModular/ADSR.cpp:68:10
	vldr	s2, .LCPI4_0
	.loc	3 67 11                 @ /root/Bela/projects/DynamicStiffStringModular/ADSR.cpp:67:11
	str	r0, [r5, #16]
	.loc	3 68 10                 @ /root/Bela/projects/DynamicStiffStringModular/ADSR.cpp:68:10
	mov	r0, r4
	.loc	3 68 32 is_stmt 0       @ /root/Bela/projects/DynamicStiffStringModular/ADSR.cpp:68:32
	vldr	s1, [r5, #4]
	.loc	3 68 17                 @ /root/Bela/projects/DynamicStiffStringModular/ADSR.cpp:68:17
	vldr	s0, [r5, #8]
	.loc	3 68 10                 @ /root/Bela/projects/DynamicStiffStringModular/ADSR.cpp:68:10
	bl	_ZN18ExponentialSegment6rampToEfff
	b	.LBB4_11
.Ltmp32:
.LBB4_7:
	@DEBUG_VALUE: process:this <- %R5
	.loc	3 73 6 is_stmt 1        @ /root/Bela/projects/DynamicStiffStringModular/ADSR.cpp:73:6
	add	r4, r5, #24
	.loc	3 73 12 is_stmt 0       @ /root/Bela/projects/DynamicStiffStringModular/ADSR.cpp:73:12
	mov	r0, r4
	bl	_ZN18ExponentialSegment8finishedEv
.Ltmp33:
	.loc	3 73 6                  @ /root/Bela/projects/DynamicStiffStringModular/ADSR.cpp:73:6
	cmp	r0, #1
	bne	.LBB4_11
.Ltmp34:
@ BB#8:
	@DEBUG_VALUE: process:this <- %R5
	.loc	3 74 11 is_stmt 1       @ /root/Bela/projects/DynamicStiffStringModular/ADSR.cpp:74:11
	mov	r0, #3
.Ltmp35:
.LBB4_9:
	@DEBUG_VALUE: process:this <- %R5
	.loc	3 84 11                 @ /root/Bela/projects/DynamicStiffStringModular/ADSR.cpp:84:11
	str	r0, [r5, #16]
	b	.LBB4_11
.Ltmp36:
.LBB4_10:                               @ %._crit_edge
	@DEBUG_VALUE: process:this <- %R5
	.loc	3 89 12                 @ /root/Bela/projects/DynamicStiffStringModular/ADSR.cpp:89:12
	add	r4, r5, #24
.Ltmp37:
.LBB4_11:
	@DEBUG_VALUE: process:this <- %R5
	.loc	3 89 18 is_stmt 0       @ /root/Bela/projects/DynamicStiffStringModular/ADSR.cpp:89:18
	mov	r0, r4
	pop	{r4, r5, r11, lr}
.Ltmp38:
	b	_ZN18ExponentialSegment7processEv
.Ltmp39:
	.p2align	2
@ BB#12:
.LCPI4_0:
	.long	1065361605              @ float 1.00100005
.Lfunc_end4:
	.size	_ZN4ADSR7processEv, .Lfunc_end4-_ZN4ADSR7processEv
	.cfi_endproc
	.fnend

	.globl	_ZN4ADSR8isActiveEv
	.p2align	2
	.type	_ZN4ADSR8isActiveEv,%function
_ZN4ADSR8isActiveEv:                    @ @_ZN4ADSR8isActiveEv
.Lfunc_begin5:
	.loc	3 95 0 is_stmt 1        @ /root/Bela/projects/DynamicStiffStringModular/ADSR.cpp:95:0
	.fnstart
	.cfi_startproc
@ BB#0:
	@DEBUG_VALUE: isActive:this <- %R0
	.loc	3 96 10 prologue_end    @ /root/Bela/projects/DynamicStiffStringModular/ADSR.cpp:96:10
	ldr	r0, [r0, #16]
.Ltmp40:
	.loc	3 96 17 is_stmt 0       @ /root/Bela/projects/DynamicStiffStringModular/ADSR.cpp:96:17
	cmp	r0, #0
	movwne	r0, #1
	.loc	3 96 2                  @ /root/Bela/projects/DynamicStiffStringModular/ADSR.cpp:96:2
	bx	lr
.Ltmp41:
.Lfunc_end5:
	.size	_ZN4ADSR8isActiveEv, .Lfunc_end5-_ZN4ADSR8isActiveEv
	.cfi_endproc
	.fnend

	.globl	_ZN4ADSR13setAttackTimeEf
	.p2align	2
	.type	_ZN4ADSR13setAttackTimeEf,%function
_ZN4ADSR13setAttackTimeEf:              @ @_ZN4ADSR13setAttackTimeEf
.Lfunc_begin6:
	.loc	3 102 0 is_stmt 1       @ /root/Bela/projects/DynamicStiffStringModular/ADSR.cpp:102:0
	.fnstart
	.cfi_startproc
@ BB#0:
	@DEBUG_VALUE: setAttackTime:this <- %R0
	@DEBUG_VALUE: setAttackTime:attackTime <- %S0
	vmov.i32	d16, #0x0
                                        @ kill: %S0<def> %S0<kill> %D0<def>
.Ltmp42:
	vmax.f32	d0, d0, d16
.Ltmp43:
	.loc	3 106 15 prologue_end   @ /root/Bela/projects/DynamicStiffStringModular/ADSR.cpp:106:15
	vstr	s0, [r0]
.Ltmp44:
	.loc	3 107 1                 @ /root/Bela/projects/DynamicStiffStringModular/ADSR.cpp:107:1
	bx	lr
.Ltmp45:
.Lfunc_end6:
	.size	_ZN4ADSR13setAttackTimeEf, .Lfunc_end6-_ZN4ADSR13setAttackTimeEf
	.cfi_endproc
	.fnend

	.globl	_ZN4ADSR12setDecayTimeEf
	.p2align	2
	.type	_ZN4ADSR12setDecayTimeEf,%function
_ZN4ADSR12setDecayTimeEf:               @ @_ZN4ADSR12setDecayTimeEf
.Lfunc_begin7:
	.loc	3 110 0                 @ /root/Bela/projects/DynamicStiffStringModular/ADSR.cpp:110:0
	.fnstart
	.cfi_startproc
@ BB#0:
	@DEBUG_VALUE: setDecayTime:this <- %R0
	@DEBUG_VALUE: setDecayTime:decayTime <- %S0
	vmov.i32	d16, #0x0
                                        @ kill: %S0<def> %S0<kill> %D0<def>
.Ltmp46:
	vmax.f32	d0, d0, d16
.Ltmp47:
	.loc	3 114 14 prologue_end   @ /root/Bela/projects/DynamicStiffStringModular/ADSR.cpp:114:14
	vstr	s0, [r0, #4]
.Ltmp48:
	.loc	3 115 1                 @ /root/Bela/projects/DynamicStiffStringModular/ADSR.cpp:115:1
	bx	lr
.Ltmp49:
.Lfunc_end7:
	.size	_ZN4ADSR12setDecayTimeEf, .Lfunc_end7-_ZN4ADSR12setDecayTimeEf
	.cfi_endproc
	.fnend

	.globl	_ZN4ADSR15setSustainLevelEf
	.p2align	2
	.type	_ZN4ADSR15setSustainLevelEf,%function
_ZN4ADSR15setSustainLevelEf:            @ @_ZN4ADSR15setSustainLevelEf
.Lfunc_begin8:
	.loc	3 118 0                 @ /root/Bela/projects/DynamicStiffStringModular/ADSR.cpp:118:0
	.fnstart
	.cfi_startproc
@ BB#0:
	@DEBUG_VALUE: setSustainLevel:this <- %R0
	@DEBUG_VALUE: setSustainLevel:sustainLevel <- %S0
	.loc	3 119 5 prologue_end    @ /root/Bela/projects/DynamicStiffStringModular/ADSR.cpp:119:5
	vcmpe.f32	s0, #0
	vmrs	APSR_nzcv, fpscr
	bge	.LBB8_2
@ BB#1:
	@DEBUG_VALUE: setSustainLevel:sustainLevel <- %S0
	@DEBUG_VALUE: setSustainLevel:this <- %R0
.Ltmp50:
	.loc	3 120 17                @ /root/Bela/projects/DynamicStiffStringModular/ADSR.cpp:120:17
	mov	r1, #0
	str	r1, [r0, #8]
.Ltmp51:
	.loc	3 125 1                 @ /root/Bela/projects/DynamicStiffStringModular/ADSR.cpp:125:1
	bx	lr
.LBB8_2:
	@DEBUG_VALUE: setSustainLevel:sustainLevel <- %S0
	@DEBUG_VALUE: setSustainLevel:this <- %R0
.Ltmp52:
	.loc	3 121 23                @ /root/Bela/projects/DynamicStiffStringModular/ADSR.cpp:121:23
	vmov.f32	d1, #1.000000e+00
.Ltmp53:
	.loc	3 121 10 is_stmt 0      @ /root/Bela/projects/DynamicStiffStringModular/ADSR.cpp:121:10
	vcmpe.f32	s0, s2
	vmrs	APSR_nzcv, fpscr
.Ltmp54:
	.loc	3 122 17 is_stmt 1      @ /root/Bela/projects/DynamicStiffStringModular/ADSR.cpp:122:17
	movgt	r1, #1065353216
	.loc	3 124 17                @ /root/Bela/projects/DynamicStiffStringModular/ADSR.cpp:124:17
	vstrle	s0, [r0, #8]
	.loc	3 122 17                @ /root/Bela/projects/DynamicStiffStringModular/ADSR.cpp:122:17
	strgt	r1, [r0, #8]
.Ltmp55:
	.loc	3 125 1                 @ /root/Bela/projects/DynamicStiffStringModular/ADSR.cpp:125:1
	bx	lr
.Ltmp56:
.Lfunc_end8:
	.size	_ZN4ADSR15setSustainLevelEf, .Lfunc_end8-_ZN4ADSR15setSustainLevelEf
	.cfi_endproc
	.fnend

	.globl	_ZN4ADSR14setReleaseTimeEf
	.p2align	2
	.type	_ZN4ADSR14setReleaseTimeEf,%function
_ZN4ADSR14setReleaseTimeEf:             @ @_ZN4ADSR14setReleaseTimeEf
.Lfunc_begin9:
	.loc	3 128 0                 @ /root/Bela/projects/DynamicStiffStringModular/ADSR.cpp:128:0
	.fnstart
	.cfi_startproc
@ BB#0:
	@DEBUG_VALUE: setReleaseTime:this <- %R0
	@DEBUG_VALUE: setReleaseTime:releaseTime <- %S0
	vmov.i32	d16, #0x0
                                        @ kill: %S0<def> %S0<kill> %D0<def>
.Ltmp57:
	vmax.f32	d0, d0, d16
.Ltmp58:
	.loc	3 132 16 prologue_end   @ /root/Bela/projects/DynamicStiffStringModular/ADSR.cpp:132:16
	vstr	s0, [r0, #12]
.Ltmp59:
	.loc	3 133 1                 @ /root/Bela/projects/DynamicStiffStringModular/ADSR.cpp:133:1
	bx	lr
.Ltmp60:
.Lfunc_end9:
	.size	_ZN4ADSR14setReleaseTimeEf, .Lfunc_end9-_ZN4ADSR14setReleaseTimeEf
	.cfi_endproc
	.fnend

	.globl	_ZN4ADSRD2Ev
	.p2align	2
	.type	_ZN4ADSRD2Ev,%function
_ZN4ADSRD2Ev:                           @ @_ZN4ADSRD2Ev
.Lfunc_begin10:
	.loc	3 137 0                 @ /root/Bela/projects/DynamicStiffStringModular/ADSR.cpp:137:0
	.fnstart
	.cfi_startproc
@ BB#0:
	.save	{r4, r10, r11, lr}
	push	{r4, r10, r11, lr}
.Ltmp61:
	.cfi_def_cfa_offset 16
.Ltmp62:
	.cfi_offset lr, -4
.Ltmp63:
	.cfi_offset r11, -8
.Ltmp64:
	.cfi_offset r10, -12
.Ltmp65:
	.cfi_offset r4, -16
	.setfp	r11, sp, #8
	add	r11, sp, #8
.Ltmp66:
	.cfi_def_cfa r11, 8
	@DEBUG_VALUE: ~ADSR:this <- %R0
	mov	r4, r0
.Ltmp67:
	@DEBUG_VALUE: ~ADSR:this <- %R4
	.loc	3 139 1 prologue_end    @ /root/Bela/projects/DynamicStiffStringModular/ADSR.cpp:139:1
	add	r0, r4, #24
	bl	_ZN18ExponentialSegmentD1Ev
.Ltmp68:
	.loc	3 139 1 is_stmt 0       @ /root/Bela/projects/DynamicStiffStringModular/ADSR.cpp:139:1
	mov	r0, r4
	pop	{r4, r10, r11, pc}
.Ltmp69:
.Lfunc_end10:
	.size	_ZN4ADSRD2Ev, .Lfunc_end10-_ZN4ADSRD2Ev
	.cfi_endproc
	.fnend

	.section	".note.GNU-stack","",%progbits
	.eabi_attribute	30, 2	@ Tag_ABI_optimization_goals