	.text
	.syntax unified
	.eabi_attribute	67, "2.09"	@ Tag_conformance
	.cpu	cortex-a8
	.eabi_attribute	6, 10	@ Tag_CPU_arch
	.eabi_attribute	7, 65	@ Tag_CPU_arch_profile
	.eabi_attribute	8, 1	@ Tag_ARM_ISA_use
	.eabi_attribute	9, 2	@ Tag_THUMB_ISA_use
	.fpu	neon
	.eabi_attribute	17, 1	@ Tag_ABI_PCS_GOT_use
	.eabi_attribute	20, 2	@ Tag_ABI_FP_denormal
	.eabi_attribute	23, 1	@ Tag_ABI_FP_number_model
	.eabi_attribute	34, 1	@ Tag_CPU_unaligned_access
	.eabi_attribute	24, 1	@ Tag_ABI_align_needed
	.eabi_attribute	25, 1	@ Tag_ABI_align_preserved
	.eabi_attribute	28, 1	@ Tag_ABI_VFP_args
	.eabi_attribute	38, 1	@ Tag_ABI_FP_16bit_format
	.eabi_attribute	18, 4	@ Tag_ABI_PCS_wchar_t
	.eabi_attribute	26, 2	@ Tag_ABI_enum_size
	.eabi_attribute	14, 0	@ Tag_ABI_PCS_R9_use
	.eabi_attribute	68, 1	@ Tag_Virtualization_use
	.file	"/root/Bela/projects/DynamicStiffStringModular/build/ExponentialSegment.bc"
	.file	1 "/usr/bin/../lib/gcc/arm-linux-gnueabihf/6.3.0/../../../../include/arm-linux-gnueabihf/c++/6.3.0/bits" "c++config.h"
	.file	2 "/usr/include/arm-linux-gnueabihf/bits" "math-finite.h"
	.file	3 "/usr/include/arm-linux-gnueabihf/bits" "mathcalls.h"
	.file	4 "/usr/include/arm-linux-gnueabihf/bits" "mathdef.h"
	.globl	_ZN18ExponentialSegmentC2Ev
	.p2align	2
	.type	_ZN18ExponentialSegmentC2Ev,%function
_ZN18ExponentialSegmentC2Ev:            @ @_ZN18ExponentialSegmentC2Ev
.Lfunc_begin0:
	.file	5 "/root/Bela/projects/DynamicStiffStringModular" "ExponentialSegment.cpp"
	.loc	5 20 0                  @ /root/Bela/projects/DynamicStiffStringModular/ExponentialSegment.cpp:20:0
	.fnstart
	.cfi_startproc
@ BB#0:
	@DEBUG_VALUE: ExponentialSegment:this <- %R0
	.loc	5 21 14 prologue_end    @ /root/Bela/projects/DynamicStiffStringModular/ExponentialSegment.cpp:21:14
	movw	r1, #0
.Ltmp0:
	.loc	5 42 33                 @ /root/Bela/projects/DynamicStiffStringModular/ExponentialSegment.cpp:42:33
	vmov.i32	q8, #0x0
.Ltmp1:
	.loc	5 21 14                 @ /root/Bela/projects/DynamicStiffStringModular/ExponentialSegment.cpp:21:14
	movt	r1, #16368
	str	r1, [r0, #4]
	mov	r1, #0
	str	r1, [r0]
.Ltmp2:
	.loc	5 42 33                 @ /root/Bela/projects/DynamicStiffStringModular/ExponentialSegment.cpp:42:33
	str	r1, [r0, #40]
	str	r1, [r0, #44]
	add	r1, r0, #24
	vst1.64	{d16, d17}, [r1]
.Ltmp3:
	@DEBUG_VALUE: setValue:value <- 0.000000e+00
	@DEBUG_VALUE: setValue:this <- %R0
	.loc	5 41 2                  @ /root/Bela/projects/DynamicStiffStringModular/ExponentialSegment.cpp:41:2
	add	r1, r0, #8
	.loc	5 42 33                 @ /root/Bela/projects/DynamicStiffStringModular/ExponentialSegment.cpp:42:33
	vst1.64	{d16, d17}, [r1]
.Ltmp4:
	.loc	5 23 1                  @ /root/Bela/projects/DynamicStiffStringModular/ExponentialSegment.cpp:23:1
	bx	lr
.Ltmp5:
.Lfunc_end0:
	.size	_ZN18ExponentialSegmentC2Ev, .Lfunc_end0-_ZN18ExponentialSegmentC2Ev
	.cfi_endproc
	.file	6 "/root/Bela/projects/DynamicStiffStringModular" "ExponentialSegment.h"
	.fnend

	.globl	_ZN18ExponentialSegment8setValueEf
	.p2align	2
	.type	_ZN18ExponentialSegment8setValueEf,%function
_ZN18ExponentialSegment8setValueEf:     @ @_ZN18ExponentialSegment8setValueEf
.Lfunc_begin1:
	.loc	5 40 0                  @ /root/Bela/projects/DynamicStiffStringModular/ExponentialSegment.cpp:40:0
	.fnstart
	.cfi_startproc
@ BB#0:
	@DEBUG_VALUE: setValue:this <- %R0
	@DEBUG_VALUE: setValue:value <- %S0
	.loc	5 41 18 prologue_end    @ /root/Bela/projects/DynamicStiffStringModular/ExponentialSegment.cpp:41:18
	vcvt.f64.f32	d16, s0
	.loc	5 44 14                 @ /root/Bela/projects/DynamicStiffStringModular/ExponentialSegment.cpp:44:14
	vmov.i32	q9, #0x0
	.loc	5 41 16                 @ /root/Bela/projects/DynamicStiffStringModular/ExponentialSegment.cpp:41:16
	vstr	d16, [r0, #8]
	.loc	5 42 33                 @ /root/Bela/projects/DynamicStiffStringModular/ExponentialSegment.cpp:42:33
	vstr	d16, [r0, #16]
	.loc	5 42 18 is_stmt 0       @ /root/Bela/projects/DynamicStiffStringModular/ExponentialSegment.cpp:42:18
	vstr	d16, [r0, #24]
	.loc	5 43 2 is_stmt 1        @ /root/Bela/projects/DynamicStiffStringModular/ExponentialSegment.cpp:43:2
	add	r0, r0, #32
.Ltmp6:
	.loc	5 44 14                 @ /root/Bela/projects/DynamicStiffStringModular/ExponentialSegment.cpp:44:14
	vst1.64	{d18, d19}, [r0]
	.loc	5 45 1                  @ /root/Bela/projects/DynamicStiffStringModular/ExponentialSegment.cpp:45:1
	bx	lr
.Ltmp7:
.Lfunc_end1:
	.size	_ZN18ExponentialSegment8setValueEf, .Lfunc_end1-_ZN18ExponentialSegment8setValueEf
	.cfi_endproc
	.fnend

	.globl	_ZN18ExponentialSegmentC2Ef
	.p2align	2
	.type	_ZN18ExponentialSegmentC2Ef,%function
_ZN18ExponentialSegmentC2Ef:            @ @_ZN18ExponentialSegmentC2Ef
.Lfunc_begin2:
	.loc	5 27 0                  @ /root/Bela/projects/DynamicStiffStringModular/ExponentialSegment.cpp:27:0
	.fnstart
	.cfi_startproc
@ BB#0:
	@DEBUG_VALUE: ExponentialSegment:this <- %R0
	@DEBUG_VALUE: ExponentialSegment:sampleRate <- %S0
	.loc	5 28 16 prologue_end    @ /root/Bela/projects/DynamicStiffStringModular/ExponentialSegment.cpp:28:16
	vcvt.f64.f32	d16, s0
.Ltmp8:
	.loc	5 42 33                 @ /root/Bela/projects/DynamicStiffStringModular/ExponentialSegment.cpp:42:33
	add	r1, r0, #24
	vmov.i32	q9, #0x0
.Ltmp9:
	@DEBUG_VALUE: setValue:this <- %R0
	.loc	5 28 14                 @ /root/Bela/projects/DynamicStiffStringModular/ExponentialSegment.cpp:28:14
	vstr	d16, [r0]
.Ltmp10:
	.loc	5 42 33                 @ /root/Bela/projects/DynamicStiffStringModular/ExponentialSegment.cpp:42:33
	vst1.64	{d18, d19}, [r1]
.Ltmp11:
	@DEBUG_VALUE: setValue:value <- 0.000000e+00
	.loc	5 41 2                  @ /root/Bela/projects/DynamicStiffStringModular/ExponentialSegment.cpp:41:2
	add	r1, r0, #8
	.loc	5 42 33                 @ /root/Bela/projects/DynamicStiffStringModular/ExponentialSegment.cpp:42:33
	vst1.64	{d18, d19}, [r1]
	mov	r1, #0
	str	r1, [r0, #40]
	str	r1, [r0, #44]
.Ltmp12:
	.loc	5 30 1                  @ /root/Bela/projects/DynamicStiffStringModular/ExponentialSegment.cpp:30:1
	bx	lr
.Ltmp13:
.Lfunc_end2:
	.size	_ZN18ExponentialSegmentC2Ef, .Lfunc_end2-_ZN18ExponentialSegmentC2Ef
	.cfi_endproc
	.fnend

	.globl	_ZN18ExponentialSegment13setSampleRateEf
	.p2align	2
	.type	_ZN18ExponentialSegment13setSampleRateEf,%function
_ZN18ExponentialSegment13setSampleRateEf: @ @_ZN18ExponentialSegment13setSampleRateEf
.Lfunc_begin3:
	.loc	5 34 0                  @ /root/Bela/projects/DynamicStiffStringModular/ExponentialSegment.cpp:34:0
	.fnstart
	.cfi_startproc
@ BB#0:
	@DEBUG_VALUE: setSampleRate:this <- %R0
	@DEBUG_VALUE: setSampleRate:rate <- %S0
	.loc	5 35 16 prologue_end    @ /root/Bela/projects/DynamicStiffStringModular/ExponentialSegment.cpp:35:16
	vcvt.f64.f32	d16, s0
	.loc	5 35 14 is_stmt 0       @ /root/Bela/projects/DynamicStiffStringModular/ExponentialSegment.cpp:35:14
	vstr	d16, [r0]
	.loc	5 36 1 is_stmt 1        @ /root/Bela/projects/DynamicStiffStringModular/ExponentialSegment.cpp:36:1
	bx	lr
.Ltmp14:
.Lfunc_end3:
	.size	_ZN18ExponentialSegment13setSampleRateEf, .Lfunc_end3-_ZN18ExponentialSegment13setSampleRateEf
	.cfi_endproc
	.fnend

	.globl	_ZN18ExponentialSegment6rampToEfff
	.p2align	2
	.type	_ZN18ExponentialSegment6rampToEfff,%function
_ZN18ExponentialSegment6rampToEfff:     @ @_ZN18ExponentialSegment6rampToEfff
.Lfunc_begin4:
	.loc	5 49 0                  @ /root/Bela/projects/DynamicStiffStringModular/ExponentialSegment.cpp:49:0
	.fnstart
	.cfi_startproc
@ BB#0:
	.save	{r4, r10, r11, lr}
	push	{r4, r10, r11, lr}
.Ltmp15:
	.cfi_def_cfa_offset 16
.Ltmp16:
	.cfi_offset lr, -4
.Ltmp17:
	.cfi_offset r11, -8
.Ltmp18:
	.cfi_offset r10, -12
.Ltmp19:
	.cfi_offset r4, -16
	.setfp	r11, sp, #8
	add	r11, sp, #8
.Ltmp20:
	.cfi_def_cfa r11, 8
	.vsave	{d8, d9}
	vpush	{d8, d9}
.Ltmp21:
	.cfi_offset d9, -24
.Ltmp22:
	.cfi_offset d8, -32
	@DEBUG_VALUE: rampTo:this <- %R0
	@DEBUG_VALUE: rampTo:value <- %S0
	@DEBUG_VALUE: rampTo:time <- %S1
	@DEBUG_VALUE: rampTo:overshootRatio <- %S2
                                        @ kill: %S2<def> %S2<kill> %D1<def>
.Ltmp23:
	.loc	5 51 17 prologue_end    @ /root/Bela/projects/DynamicStiffStringModular/ExponentialSegment.cpp:51:17
	vcvt.f64.f32	d16, s0
	mov	r4, r0
.Ltmp24:
	@DEBUG_VALUE: rampTo:this <- %R4
	.loc	5 61 43                 @ /root/Bela/projects/DynamicStiffStringModular/ExponentialSegment.cpp:61:43
	vcvt.f64.f32	d18, s2
	vmov.f64	d9, #1.000000e+00
	.loc	5 51 15                 @ /root/Bela/projects/DynamicStiffStringModular/ExponentialSegment.cpp:51:15
	vstr	d16, [r4, #16]
	vmov.f32	s16, s1
.Ltmp25:
	@DEBUG_VALUE: rampTo:time <- %S16
	.loc	5 61 42                 @ /root/Bela/projects/DynamicStiffStringModular/ExponentialSegment.cpp:61:42
	vdiv.f64	d18, d9, d18
	.loc	5 55 42                 @ /root/Bela/projects/DynamicStiffStringModular/ExponentialSegment.cpp:55:42
	vldr	d17, [r4, #8]
	.loc	5 55 40 is_stmt 0       @ /root/Bela/projects/DynamicStiffStringModular/ExponentialSegment.cpp:55:40
	vsub.f64	d16, d16, d17
	.loc	5 55 27                 @ /root/Bela/projects/DynamicStiffStringModular/ExponentialSegment.cpp:55:27
	vcvt.f32.f64	s0, d16
.Ltmp26:
	@DEBUG_VALUE: rampTo:distanceToTarget <- %S0
	.loc	5 56 53 is_stmt 1       @ /root/Bela/projects/DynamicStiffStringModular/ExponentialSegment.cpp:56:53
	vmul.f32	d0, d0, d1
.Ltmp27:
	.loc	5 56 36 is_stmt 0       @ /root/Bela/projects/DynamicStiffStringModular/ExponentialSegment.cpp:56:36
	vcvt.f64.f32	d16, s0
	.loc	5 56 34                 @ /root/Bela/projects/DynamicStiffStringModular/ExponentialSegment.cpp:56:34
	vadd.f64	d17, d16, d17
	.loc	5 61 37 is_stmt 1       @ /root/Bela/projects/DynamicStiffStringModular/ExponentialSegment.cpp:61:37
	vsub.f64	d0, d9, d18
	.loc	5 58 28                 @ /root/Bela/projects/DynamicStiffStringModular/ExponentialSegment.cpp:58:28
	vneg.f64	d16, d16
	.loc	5 56 18                 @ /root/Bela/projects/DynamicStiffStringModular/ExponentialSegment.cpp:56:18
	vstr	d17, [r4, #24]
	.loc	5 58 12                 @ /root/Bela/projects/DynamicStiffStringModular/ExponentialSegment.cpp:58:12
	vstr	d16, [r4, #32]
	.loc	5 61 29 discriminator 1 @ /root/Bela/projects/DynamicStiffStringModular/ExponentialSegment.cpp:61:29
	bl	__log_finite
	.loc	5 61 22 is_stmt 0       @ /root/Bela/projects/DynamicStiffStringModular/ExponentialSegment.cpp:61:22
	vcvt.f64.f32	d16, s16
	.loc	5 61 27                 @ /root/Bela/projects/DynamicStiffStringModular/ExponentialSegment.cpp:61:27
	vdiv.f64	d16, d16, d0
	.loc	5 64 29 is_stmt 1       @ /root/Bela/projects/DynamicStiffStringModular/ExponentialSegment.cpp:64:29
	vdiv.f64	d0, d9, d16
	.loc	5 64 20 is_stmt 0       @ /root/Bela/projects/DynamicStiffStringModular/ExponentialSegment.cpp:64:20
	bl	__exp_finite
	.loc	5 64 43                 @ /root/Bela/projects/DynamicStiffStringModular/ExponentialSegment.cpp:64:43
	vldr	d16, [r4]
	.loc	5 64 41                 @ /root/Bela/projects/DynamicStiffStringModular/ExponentialSegment.cpp:64:41
	vdiv.f64	d1, d9, d16
	.loc	5 64 16 discriminator 1 @ /root/Bela/projects/DynamicStiffStringModular/ExponentialSegment.cpp:64:16
	bl	pow
	.loc	5 64 14                 @ /root/Bela/projects/DynamicStiffStringModular/ExponentialSegment.cpp:64:14
	vstr	d0, [r4, #40]
	.loc	5 65 1 is_stmt 1        @ /root/Bela/projects/DynamicStiffStringModular/ExponentialSegment.cpp:65:1
	vpop	{d8, d9}
.Ltmp28:
	pop	{r4, r10, r11, pc}
.Ltmp29:
.Lfunc_end4:
	.size	_ZN18ExponentialSegment6rampToEfff, .Lfunc_end4-_ZN18ExponentialSegment6rampToEfff
	.cfi_endproc
	.fnend

	.globl	_ZN18ExponentialSegment7processEv
	.p2align	2
	.type	_ZN18ExponentialSegment7processEv,%function
_ZN18ExponentialSegment7processEv:      @ @_ZN18ExponentialSegment7processEv
.Lfunc_begin5:
	.loc	5 69 0                  @ /root/Bela/projects/DynamicStiffStringModular/ExponentialSegment.cpp:69:0
	.fnstart
	.cfi_startproc
@ BB#0:
	@DEBUG_VALUE: process:this <- %R0
	.loc	5 85 55 prologue_end discriminator 1 @ /root/Bela/projects/DynamicStiffStringModular/ExponentialSegment.cpp:85:55
	vldr	d18, [r0, #24]
.Ltmp30:
	.loc	5 73 13                 @ /root/Bela/projects/DynamicStiffStringModular/ExponentialSegment.cpp:73:13
	vldr	d17, [r0, #32]
.Ltmp31:
	.loc	5 75 9                  @ /root/Bela/projects/DynamicStiffStringModular/ExponentialSegment.cpp:75:9
	vadd.f64	d16, d17, d18
	.loc	5 70 16                 @ /root/Bela/projects/DynamicStiffStringModular/ExponentialSegment.cpp:70:16
	vstr	d16, [r0, #8]
.Ltmp32:
	@DEBUG_VALUE: finished:this <- %R0
	.loc	5 85 22                 @ /root/Bela/projects/DynamicStiffStringModular/ExponentialSegment.cpp:85:22
	vldr	d19, [r0, #16]
.Ltmp33:
	.loc	5 83 35                 @ /root/Bela/projects/DynamicStiffStringModular/ExponentialSegment.cpp:83:35
	vcmpe.f64	d16, d19
	vmrs	APSR_nzcv, fpscr
	blt	.LBB5_2
.Ltmp34:
@ BB#1:
	@DEBUG_VALUE: finished:this <- %R0
	@DEBUG_VALUE: process:this <- %R0
	vcmpe.f64	d16, d18
	vmrs	APSR_nzcv, fpscr
	ble	.LBB5_5
.LBB5_2:
	@DEBUG_VALUE: finished:this <- %R0
	@DEBUG_VALUE: process:this <- %R0
.Ltmp35:
	.loc	5 85 35                 @ /root/Bela/projects/DynamicStiffStringModular/ExponentialSegment.cpp:85:35
	vcmpe.f64	d16, d19
	vmrs	APSR_nzcv, fpscr
	bgt	.LBB5_4
.Ltmp36:
@ BB#3:
	@DEBUG_VALUE: finished:this <- %R0
	@DEBUG_VALUE: process:this <- %R0
	vcmpe.f64	d16, d18
	vmrs	APSR_nzcv, fpscr
	bge	.LBB5_5
.LBB5_4:                                @ %_ZN18ExponentialSegment8finishedEv.exit
	@DEBUG_VALUE: finished:this <- %R0
	@DEBUG_VALUE: process:this <- %R0
	.loc	5 73 16                 @ /root/Bela/projects/DynamicStiffStringModular/ExponentialSegment.cpp:73:16
	vldr	d18, [r0, #40]
	.loc	5 73 13 is_stmt 0       @ /root/Bela/projects/DynamicStiffStringModular/ExponentialSegment.cpp:73:13
	vmul.f64	d17, d17, d18
	vstr	d17, [r0, #32]
.Ltmp37:
.LBB5_5:                                @ %_ZN18ExponentialSegment8finishedEv.exit.thread
	@DEBUG_VALUE: finished:this <- %R0
	@DEBUG_VALUE: process:this <- %R0
	.loc	5 75 9 is_stmt 1        @ /root/Bela/projects/DynamicStiffStringModular/ExponentialSegment.cpp:75:9
	vcvt.f32.f64	s0, d16
	.loc	5 75 2 is_stmt 0        @ /root/Bela/projects/DynamicStiffStringModular/ExponentialSegment.cpp:75:2
	bx	lr
.Ltmp38:
.Lfunc_end5:
	.size	_ZN18ExponentialSegment7processEv, .Lfunc_end5-_ZN18ExponentialSegment7processEv
	.cfi_endproc
	.fnend

	.globl	_ZN18ExponentialSegment8finishedEv
	.p2align	2
	.type	_ZN18ExponentialSegment8finishedEv,%function
_ZN18ExponentialSegment8finishedEv:     @ @_ZN18ExponentialSegment8finishedEv
.Lfunc_begin6:
	.loc	5 80 0 is_stmt 1        @ /root/Bela/projects/DynamicStiffStringModular/ExponentialSegment.cpp:80:0
	.fnstart
	.cfi_startproc
@ BB#0:
	@DEBUG_VALUE: finished:this <- %R0
	.loc	5 85 5 prologue_end     @ /root/Bela/projects/DynamicStiffStringModular/ExponentialSegment.cpp:85:5
	vldr	d16, [r0, #8]
	.loc	5 85 22 is_stmt 0       @ /root/Bela/projects/DynamicStiffStringModular/ExponentialSegment.cpp:85:22
	vldr	d17, [r0, #16]
.Ltmp39:
	.loc	5 83 35 is_stmt 1       @ /root/Bela/projects/DynamicStiffStringModular/ExponentialSegment.cpp:83:35
	vcmpe.f64	d16, d17
	vmrs	APSR_nzcv, fpscr
	blt	.LBB6_2
@ BB#1:
	@DEBUG_VALUE: finished:this <- %R0
	.loc	5 83 55 is_stmt 0 discriminator 1 @ /root/Bela/projects/DynamicStiffStringModular/ExponentialSegment.cpp:83:55
	vldr	d18, [r0, #24]
	mov	r1, #1
	.loc	5 83 5 discriminator 1  @ /root/Bela/projects/DynamicStiffStringModular/ExponentialSegment.cpp:83:5
	vcmpe.f64	d16, d18
	vmrs	APSR_nzcv, fpscr
	ble	.LBB6_5
.Ltmp40:
.LBB6_2:
	@DEBUG_VALUE: finished:this <- %R0
	.loc	5 85 35 is_stmt 1       @ /root/Bela/projects/DynamicStiffStringModular/ExponentialSegment.cpp:85:35
	vcmpe.f64	d16, d17
	vmrs	APSR_nzcv, fpscr
	ble	.LBB6_4
@ BB#3:
	@DEBUG_VALUE: finished:this <- %R0
	mov	r1, #0
	b	.LBB6_5
.LBB6_4:
	@DEBUG_VALUE: finished:this <- %R0
	.loc	5 85 55 is_stmt 0 discriminator 1 @ /root/Bela/projects/DynamicStiffStringModular/ExponentialSegment.cpp:85:55
	vldr	d17, [r0, #24]
	mov	r1, #1
	.loc	5 85 5 discriminator 1  @ /root/Bela/projects/DynamicStiffStringModular/ExponentialSegment.cpp:85:5
	vcmpe.f64	d16, d17
	vmrs	APSR_nzcv, fpscr
	movlt	r1, #0
.Ltmp41:
.LBB6_5:
	@DEBUG_VALUE: finished:this <- %R0
	.loc	5 88 1 is_stmt 1        @ /root/Bela/projects/DynamicStiffStringModular/ExponentialSegment.cpp:88:1
	mov	r0, r1
	bx	lr
.Ltmp42:
.Lfunc_end6:
	.size	_ZN18ExponentialSegment8finishedEv, .Lfunc_end6-_ZN18ExponentialSegment8finishedEv
	.cfi_endproc
	.fnend

	.globl	_ZN18ExponentialSegmentD2Ev
	.p2align	2
	.type	_ZN18ExponentialSegmentD2Ev,%function
_ZN18ExponentialSegmentD2Ev:            @ @_ZN18ExponentialSegmentD2Ev
.Lfunc_begin7:
	.loc	5 92 0                  @ /root/Bela/projects/DynamicStiffStringModular/ExponentialSegment.cpp:92:0
	.fnstart
	.cfi_startproc
@ BB#0:
	@DEBUG_VALUE: ~ExponentialSegment:this <- %R0
	.loc	5 93 1 prologue_end     @ /root/Bela/projects/DynamicStiffStringModular/ExponentialSegment.cpp:93:1
	bx	lr
.Ltmp43:
.Lfunc_end7:
	.size	_ZN18ExponentialSegmentD2Ev, .Lfunc_end7-_ZN18ExponentialSegmentD2Ev
	.cfi_endproc
	.fnend

	.section	".note.GNU-stack","",%progbits
	.eabi_attribute	30, 2	@ Tag_ABI_optimization_goals